; ModuleID = '55/860.c'
source_filename = "55/860.c"
target datalayout = "e-m:e-p270:32:32-p271:32:32-p272:64:64-i64:64-f80:128-n8:16:32:64-S128"
target triple = "x86_64-pc-linux-gnu"

@.str = private unnamed_addr constant [9 x i8] c"%d %s %d\00", align 1
@.str.1 = private unnamed_addr constant [3 x i8] c"0\0A\00", align 1
@.str.2 = private unnamed_addr constant [3 x i8] c"%s\00", align 1

; Function Attrs: noinline nounwind uwtable
define dso_local i32 @main() #0 {
  %1 = alloca i32, align 4
  %2 = alloca [40 x i8], align 16
  %3 = alloca i32, align 4
  %4 = alloca i32, align 4
  %5 = alloca i32, align 4
  %6 = alloca i32, align 4
  %7 = alloca i32, align 4
  %8 = alloca i32, align 4
  %9 = alloca i32, align 4
  %10 = alloca [40 x i8], align 16
  %11 = alloca [40 x i8], align 16
  store i32 0, i32* %1, align 4
  %12 = getelementptr inbounds [40 x i8], [40 x i8]* %2, i64 0, i64 0
  %13 = call i32 (i8*, ...) @__isoc99_scanf(i8* getelementptr inbounds ([9 x i8], [9 x i8]* @.str, i64 0, i64 0), i32* %3, i8* %12, i32* %4)
  %14 = getelementptr inbounds [40 x i8], [40 x i8]* %2, i64 0, i64 0
  %15 = call i64 @strlen(i8* %14) #3
  %16 = trunc i64 %15 to i32
  store i32 %16, i32* %7, align 4
  %17 = getelementptr inbounds [40 x i8], [40 x i8]* %2, i64 0, i64 0
  %18 = load i8, i8* %17, align 16
  %19 = sext i8 %18 to i32
  %20 = icmp eq i32 %19, 48
  br i1 %20, label %21, label %23

21:                                               ; preds = %0
  %22 = call i32 (i8*, ...) @printf(i8* getelementptr inbounds ([3 x i8], [3 x i8]* @.str.1, i64 0, i64 0))
  br label %166

23:                                               ; preds = %0
  store i32 0, i32* %6, align 4
  br label %24

24:                                               ; preds = %55, %23
  %25 = load i32, i32* %6, align 4
  %26 = load i32, i32* %7, align 4
  %27 = icmp slt i32 %25, %26
  br i1 %27, label %28, label %58

28:                                               ; preds = %24
  %29 = load i32, i32* %6, align 4
  %30 = sext i32 %29 to i64
  %31 = getelementptr inbounds [40 x i8], [40 x i8]* %2, i64 0, i64 %30
  %32 = load i8, i8* %31, align 1
  %33 = sext i8 %32 to i32
  %34 = icmp sge i32 %33, 65
  br i1 %34, label %35, label %54

35:                                               ; preds = %28
  %36 = load i32, i32* %6, align 4
  %37 = sext i32 %36 to i64
  %38 = getelementptr inbounds [40 x i8], [40 x i8]* %2, i64 0, i64 %37
  %39 = load i8, i8* %38, align 1
  %40 = sext i8 %39 to i32
  %41 = icmp sle i32 %40, 90
  br i1 %41, label %42, label %54

42:                                               ; preds = %35
  %43 = load i32, i32* %6, align 4
  %44 = sext i32 %43 to i64
  %45 = getelementptr inbounds [40 x i8], [40 x i8]* %2, i64 0, i64 %44
  %46 = load i8, i8* %45, align 1
  %47 = sext i8 %46 to i32
  %48 = sub nsw i32 %47, 65
  %49 = add nsw i32 %48, 97
  %50 = trunc i32 %49 to i8
  %51 = load i32, i32* %6, align 4
  %52 = sext i32 %51 to i64
  %53 = getelementptr inbounds [40 x i8], [40 x i8]* %2, i64 0, i64 %52
  store i8 %50, i8* %53, align 1
  br label %54

54:                                               ; preds = %42, %35, %28
  br label %55

55:                                               ; preds = %54
  %56 = load i32, i32* %6, align 4
  %57 = add nsw i32 %56, 1
  store i32 %57, i32* %6, align 4
  br label %24

58:                                               ; preds = %24
  store i32 0, i32* %5, align 4
  store i32 0, i32* %6, align 4
  br label %59

59:                                               ; preds = %91, %58
  %60 = load i32, i32* %6, align 4
  %61 = load i32, i32* %7, align 4
  %62 = icmp slt i32 %60, %61
  br i1 %62, label %63, label %94

63:                                               ; preds = %59
  %64 = load i32, i32* %6, align 4
  %65 = sext i32 %64 to i64
  %66 = getelementptr inbounds [40 x i8], [40 x i8]* %2, i64 0, i64 %65
  %67 = load i8, i8* %66, align 1
  %68 = sext i8 %67 to i32
  %69 = icmp sge i32 %68, 97
  br i1 %69, label %70, label %78

70:                                               ; preds = %63
  %71 = load i32, i32* %6, align 4
  %72 = sext i32 %71 to i64
  %73 = getelementptr inbounds [40 x i8], [40 x i8]* %2, i64 0, i64 %72
  %74 = load i8, i8* %73, align 1
  %75 = sext i8 %74 to i32
  %76 = sub nsw i32 %75, 97
  %77 = add nsw i32 %76, 10
  store i32 %77, i32* %9, align 4
  br label %85

78:                                               ; preds = %63
  %79 = load i32, i32* %6, align 4
  %80 = sext i32 %79 to i64
  %81 = getelementptr inbounds [40 x i8], [40 x i8]* %2, i64 0, i64 %80
  %82 = load i8, i8* %81, align 1
  %83 = sext i8 %82 to i32
  %84 = sub nsw i32 %83, 48
  store i32 %84, i32* %9, align 4
  br label %85

85:                                               ; preds = %78, %70
  %86 = load i32, i32* %9, align 4
  %87 = load i32, i32* %5, align 4
  %88 = load i32, i32* %3, align 4
  %89 = mul nsw i32 %87, %88
  %90 = add nsw i32 %86, %89
  store i32 %90, i32* %5, align 4
  br label %91

91:                                               ; preds = %85
  %92 = load i32, i32* %6, align 4
  %93 = add nsw i32 %92, 1
  store i32 %93, i32* %6, align 4
  br label %59

94:                                               ; preds = %59
  store i32 0, i32* %8, align 4
  br label %95

95:                                               ; preds = %109, %94
  %96 = load i32, i32* %5, align 4
  %97 = icmp ne i32 %96, 0
  br i1 %97, label %98, label %112

98:                                               ; preds = %95
  %99 = load i32, i32* %5, align 4
  %100 = load i32, i32* %4, align 4
  %101 = srem i32 %99, %100
  %102 = trunc i32 %101 to i8
  %103 = load i32, i32* %8, align 4
  %104 = sext i32 %103 to i64
  %105 = getelementptr inbounds [40 x i8], [40 x i8]* %10, i64 0, i64 %104
  store i8 %102, i8* %105, align 1
  %106 = load i32, i32* %5, align 4
  %107 = load i32, i32* %4, align 4
  %108 = sdiv i32 %106, %107
  store i32 %108, i32* %5, align 4
  br label %109

109:                                              ; preds = %98
  %110 = load i32, i32* %8, align 4
  %111 = add nsw i32 %110, 1
  store i32 %111, i32* %8, align 4
  br label %95

112:                                              ; preds = %95
  %113 = load i32, i32* %8, align 4
  %114 = sext i32 %113 to i64
  %115 = getelementptr inbounds [40 x i8], [40 x i8]* %10, i64 0, i64 %114
  store i8 0, i8* %115, align 1
  store i32 0, i32* %6, align 4
  br label %116

116:                                              ; preds = %157, %112
  %117 = load i32, i32* %6, align 4
  %118 = load i32, i32* %8, align 4
  %119 = icmp slt i32 %117, %118
  br i1 %119, label %120, label %160

120:                                              ; preds = %116
  %121 = load i32, i32* %6, align 4
  %122 = sext i32 %121 to i64
  %123 = getelementptr inbounds [40 x i8], [40 x i8]* %10, i64 0, i64 %122
  %124 = load i8, i8* %123, align 1
  %125 = sext i8 %124 to i32
  %126 = icmp slt i32 %125, 10
  br i1 %126, label %127, label %141

127:                                              ; preds = %120
  %128 = load i32, i32* %6, align 4
  %129 = sext i32 %128 to i64
  %130 = getelementptr inbounds [40 x i8], [40 x i8]* %10, i64 0, i64 %129
  %131 = load i8, i8* %130, align 1
  %132 = sext i8 %131 to i32
  %133 = add nsw i32 %132, 48
  %134 = trunc i32 %133 to i8
  %135 = load i32, i32* %8, align 4
  %136 = sub nsw i32 %135, 1
  %137 = load i32, i32* %6, align 4
  %138 = sub nsw i32 %136, %137
  %139 = sext i32 %138 to i64
  %140 = getelementptr inbounds [40 x i8], [40 x i8]* %11, i64 0, i64 %139
  store i8 %134, i8* %140, align 1
  br label %156

141:                                              ; preds = %120
  %142 = load i32, i32* %6, align 4
  %143 = sext i32 %142 to i64
  %144 = getelementptr inbounds [40 x i8], [40 x i8]* %10, i64 0, i64 %143
  %145 = load i8, i8* %144, align 1
  %146 = sext i8 %145 to i32
  %147 = add nsw i32 %146, 65
  %148 = sub nsw i32 %147, 10
  %149 = trunc i32 %148 to i8
  %150 = load i32, i32* %8, align 4
  %151 = sub nsw i32 %150, 1
  %152 = load i32, i32* %6, align 4
  %153 = sub nsw i32 %151, %152
  %154 = sext i32 %153 to i64
  %155 = getelementptr inbounds [40 x i8], [40 x i8]* %11, i64 0, i64 %154
  store i8 %149, i8* %155, align 1
  br label %156

156:                                              ; preds = %141, %127
  br label %157

157:                                              ; preds = %156
  %158 = load i32, i32* %6, align 4
  %159 = add nsw i32 %158, 1
  store i32 %159, i32* %6, align 4
  br label %116

160:                                              ; preds = %116
  %161 = load i32, i32* %8, align 4
  %162 = sext i32 %161 to i64
  %163 = getelementptr inbounds [40 x i8], [40 x i8]* %11, i64 0, i64 %162
  store i8 0, i8* %163, align 1
  %164 = getelementptr inbounds [40 x i8], [40 x i8]* %11, i64 0, i64 0
  %165 = call i32 (i8*, ...) @printf(i8* getelementptr inbounds ([3 x i8], [3 x i8]* @.str.2, i64 0, i64 0), i8* %164)
  br label %166

166:                                              ; preds = %160, %21
  %167 = load i32, i32* %1, align 4
  ret i32 %167
}

declare dso_local i32 @__isoc99_scanf(i8*, ...) #1

; Function Attrs: nounwind readonly
declare dso_local i64 @strlen(i8*) #2

declare dso_local i32 @printf(i8*, ...) #1


!llvm.module.flags = !{!0}
!llvm.ident = !{!1}

!0 = !{i32 1, !"wchar_size", i32 4}
!1 = !{!"clang version 10.0.0-4ubuntu1 "}
